; Function Attrs: mustprogress nofree norecurse nosync nounwind memory(readwrite, inaccessiblemem: none) uwtable
define hidden void @_ZN5zxing8BitArray5clearEv(ptr noundef nonnull readonly align 8 captures(none) dereferenceable(88) %0) local_unnamed_addr #6 align 2 {
  %2 = getelementptr inbounds nuw i8, ptr %0, i64 32
  %3 = load ptr, ptr %2, align 8, !tbaa !17
  %4 = getelementptr inbounds nuw i8, ptr %3, i64 16
  %5 = getelementptr inbounds nuw i8, ptr %3, i64 24
  %6 = load ptr, ptr %5, align 8, !tbaa !22
  %7 = load ptr, ptr %4, align 8, !tbaa !18
  %8 = ptrtoint ptr %6 to i64
  %9 = ptrtoint ptr %7 to i64
  %10 = sub i64 %8, %9
  %11 = trunc i64 %10 to i32
  %12 = icmp sgt i32 %11, 0
  br i1 %12, label %.lr.ph.preheader, label %._crit_edge

.lr.ph.preheader:                                 ; preds = %1
  %wide.trip.count = and i64 %10, 2147483647
  br label %.lr.ph

._crit_edge:                                      ; preds = %.lr.ph, %1
  ret void

.lr.ph:                                           ; preds = %.lr.ph.preheader, %.lr.ph
  %indvars.iv = phi i64 [ 0, %.lr.ph.preheader ], [ %indvars.iv.next, %.lr.ph ]
  %13 = load ptr, ptr %2, align 8, !tbaa !17
  %14 = getelementptr inbounds nuw i8, ptr %13, i64 16
  %15 = load ptr, ptr %14, align 8, !tbaa !18
  %16 = getelementptr inbounds nuw i8, ptr %15, i64 %indvars.iv
  store i8 0, ptr %16, align 1, !tbaa !30
  %indvars.iv.next = add nuw nsw i64 %indvars.iv, 1
  %exitcond.not = icmp eq i64 %indvars.iv.next, %wide.trip.count
  br i1 %exitcond.not, label %._crit_edge, label %.lr.ph, !llvm.loop !48
}